(dp1
Vjiangjiandong
p2
(i__main__
Person
p3
(dp4
S'tels'
p5
(lp6
S'18612118419'
p7
aS'13426203786'
p8
asS'uid'
p9
S'5841301569275904'
p10
sS'fn'
p11
V\u59dc\u5efa\u4e1c
p12
sbsVliuxiaosuo
p13
(i__main__
Person
p14
(dp15
g5
(lp16
S'15847188051'
p17
asg9
S'5841301616986240'
p18
sg11
V\u5218\u6653\u9501
p19
sbsVliuguoping
p20
(i__main__
Person
p21
(dp22
g5
(lp23
S'15238607959'
p24
asg9
S'5841301592868736'
p25
sg11
V\u5218\u679c\u5e73
p26
sbsVyangweihua
p27
(i__main__
Person
p28
(dp29
g5
(lp30
S'13919999052'
p31
asg9
S'5841301803895040'
p32
sg11
V\u6768\u4f1f\u534e
p33
sbsVguokai
p34
(i__main__
Person
p35
(dp36
g5
(lp37
S'13521325643'
p38
asg9
S'5841301545158785'
p39
sg11
V\u90ed\u51ef
p40
sbsVdaniang
p41
(i__main__
Person
p42
(dp43
g5
(lp44
S'13526792639'
p45
asg9
S'13526156330666368'
p46
sg11
V\u5927\u5a18
p47
sbsVxiaoyi
p48
(i__main__
Person
p49
(dp50
g5
(lp51
S'13393716431'
p52
asg9
S'5841301780564096'
p53
sg11
V\u5c0f\u59e8
p54
sbsVlvjian
p55
(i__main__
Person
p56
(dp57
g5
(lp58
S'18611112922'
p59
asg9
S'5841301670723586'
p60
sg11
V\u5415\u5065
p61
sbsVgaoguidong
p62
(i__main__
Person
p63
(dp64
g5
(lp65
S'18637312792'
p66
asg9
S'5841301539127297'
p67
sg11
V\u9ad8\u8d35\u4e1c
p68
sbsVfutingting
p69
(i__main__
Person
p70
(dp71
g5
(lp72
S'15838040362'
p73
asg9
S'5841301533886592'
p74
sg11
V\u4ed8\u5a77\u5a77
p75
sbsVlilimeng
p76
(i__main__
Person
p77
(dp78
g5
(lp79
S'13520364130'
p80
asg9
S'5841301630617600'
p81
sg11
V\u674e\u7acb\u731b
p82
sbsVdongqubutai
p83
(i__main__
Person
p84
(dp85
g5
(lp86
S'13223040668'
p87
asg9
S'5841301523400576'
p88
sg11
V\u4e1c\u533a\u8865\u80ce
p89
sbsVfenglei
p90
(i__main__
Person
p91
(dp92
g5
(lp93
S'15643229600'
p94
asg9
S'5841301531527424'
p95
sg11
V\u51af\u78ca
p96
sbsVlixiushan
p97
(i__main__
Person
p98
(dp99
g5
(lp100
S'15924519838'
p101
asg9
S'5841301656831872'
p102
sg11
V\u674e\u79c0\u5c71
p103
sbsVyangwenlong
p104
(i__main__
Person
p105
(dp106
g5
(lp107
S'18678508638'
p108
asg9
S'5841301805467776'
p109
sg11
V\u6768\u6587\u9f99
p110
sbsVxueru
p111
(i__main__
Person
p112
(dp113
g5
(lp114
S'18310238126'
p115
asg9
S'5841301784234112'
p116
sg11
V\u859b\u8339
p117
sbsVlizhao
p118
(i__main__
Person
p119
(dp120
g5
(lp121
S'13520183678'
p122
asg9
S'5841301661812865'
p123
sg11
V\u674e\u948a
p124
sbsVliulu
p125
(i__main__
Person
p126
(dp127
g5
(lp128
S'15003849933'
p129
asg9
S'5841301595228288'
p130
sg11
V\u5218\u7490
p131
sbsVliwenmin
p132
(i__main__
Person
p133
(dp134
g5
(lp135
S'18638005680'
p136
asg9
S'5841301652899841'
p137
sg11
V\u674e\u6587\u6c11
p138
sbsVergu
p139
(i__main__
Person
p140
(dp141
g5
(lp142
S'13462529979'
p143
aS'037762160597'
p144
asg9
S'5841301529167872'
p145
sg11
V\u4e8c\u59d1
p146
sbsVzhangyanli
p147
(i__main__
Person
p148
(dp149
g5
(lp150
S'13949080037'
p151
asg9
S'5841301841643776'
p152
sg11
V\u5f20\u8273\u4e3d
p153
sbsVmaliqiang
p154
(i__main__
Person
p155
(dp156
g5
(lp157
S'18601065892'
p158
asg9
S'7565203709625728'
p159
sg11
V\u9a6c\u5229\u5f3a
p160
sbsVchenzongSPRT
p161
(i__main__
Person
p162
(dp163
g5
(lp164
S'13602623525'
p165
asg9
S'5841301515274112'
p166
sg11
V\u9648\u603bSPRT
p167
sbsVfuwenlong
p168
(i__main__
Person
p169
(dp170
g5
(lp171
S'18939541900'
p172
asg9
S'5841301534673024'
p173
sg11
V\u4ed8\u6587\u9f99
p174
sbsVlining
p175
(i__main__
Person
p176
(dp177
g5
(lp178
S'+8618637355506'
p179
asg9
S'5841301635336066'
p180
sg11
V\u674e\u5b81
p181
sbsVdingmin
p182
(i__main__
Person
p183
(dp184
g5
(lp185
S'15538225667'
p186
asg9
S'5841301520777216'
p187
sg11
V\u4e01\u654f
p188
sbsVjinweicaigoubu
p189
(i__main__
Person
p190
(dp191
g5
(lp192
S'13703930016'
p193
asg9
S'6676857602179840'
p194
sg11
V\u91d1\u4f1f\u91c7\u8d2d\u90e8
p195
sbsVwuyongkun
p196
(i__main__
Person
p197
(dp198
g5
(lp199
S'15036156875'
p200
aS'13838223695'
p201
asg9
S'5841301776369536'
p202
sg11
V\u5434\u6c38\u5764
p203
sbsVmozifu
p204
(i__main__
Person
p205
(dp206
g5
(lp207
S'13976013507'
p208
asg9
S'5841301682520064'
p209
sg11
V\u83ab\u5b50\u5b5a
p210
sbsVjiaowei
p211
(i__main__
Person
p212
(dp213
g5
(lp214
S'13785332844'
p215
asg9
S'5841301574256640'
p216
sg11
V\u7126\u4f1f
p217
sbsVlixuelei
p218
(i__main__
Person
p219
(dp220
g5
(lp221
S'13909711789'
p222
asg9
S'5841301656829952'
p223
sg11
V\u674e\u5b66\u96f7
p224
sbsVchenning
p225
(i__main__
Person
p226
(dp227
g5
(lp228
S'15838265378'
p229
asg9
S'5841301512915073'
p230
sg11
V\u9648\u5b81
p231
sbsVwangrenwei
p232
(i__main__
Person
p233
(dp234
g5
(lp235
S'13876339645'
p236
asg9
S'5841301759854592'
p237
sg11
V\u738b\u4ec1\u5a01
p238
sbsVchenyapeng
p239
(i__main__
Person
p240
(dp241
g5
(lp242
S'18691884109'
p243
asg9
S'5841301513437185'
p244
sg11
V\u9648\u4e9a\u9e4f
p245
sbsVwanggang
p246
(i__main__
Person
p247
(dp248
g5
(lp249
S'13910897254'
p250
asg9
S'5841301748582528'
p251
sg11
V\u738b\u521a
p252
sbsVluman
p253
(i__main__
Person
p254
(dp255
g5
(lp256
S'15001031738'
p257
asg9
S'5841301666531584'
p258
sg11
V\u9646\u66fc
p259
sbsVcengjiquan
p260
(i__main__
Person
p261
(dp262
g5
(lp263
S'13783651806'
p264
asg9
S'5841301497710464'
p265
sg11
V\u66fe\u5409\u5168
p266
sbsVliwuqiang
p267
(i__main__
Person
p268
(dp269
g5
(lp270
S'13838588731'
p271
asg9
S'5841301652635648'
p272
sg11
V\u674e\u6b66\u5f3a
p273
sbsVwenghongxing
p274
(i__main__
Person
p275
(dp276
g5
(lp277
S'13603710538'
p278
asg9
S'14402683909179776'
p279
sg11
V\u7fc1\u7ea2\u661f
p280
sbsVwangliCMCC
p281
(i__main__
Person
p282
(dp283
g5
(lp284
S'13939030002'
p285
asg9
S'5841301754611584'
p286
sg11
V\u738b\u4e3dCMCC
p287
sbsVfanlidong
p288
(i__main__
Person
p289
(dp290
g5
(lp291
S'15811184793'
p292
asg9
S'5841301531265153'
p293
sg11
V\u8303\u5229\u4e1c
p294
sbsVshifengchun
p295
(i__main__
Person
p296
(dp297
g5
(lp298
S'13808182367'
p299
asg9
S'5841301720530944'
p300
sg11
V\u65f6\u51e4\u6625
p301
sbsVwanqian
p302
(i__main__
Person
p303
(dp304
g5
(lp305
S'18627207879'
p306
asg9
S'5841301774010368'
p307
sg11
V\u4e07\u5343
p308
sbsVshaozhiwen
p309
(i__main__
Person
p310
(dp311
g5
(lp312
S'18937169172'
p313
asg9
S'6135479148216320'
p314
sg11
V\u90b5\u5fd7\u6587
p315
sbsVwangbo
p316
(i__main__
Person
p317
(dp318
g5
(lp319
S'15890017991'
p320
asg9
S'17148678362368512'
p321
sg11
V\u738b\u6ce2
p322
sbsVzhuwa
p323
(i__main__
Person
p324
(dp325
g5
(lp326
S'15237788785'
p327
asg9
S'10243657441217024'
p328
sg11
V\u67f1\u5a03
p329
sbsVjizhiying
p330
(i__main__
Person
p331
(dp332
g5
(lp333
S'15003716722'
p334
asg9
S'5841301577140224'
p335
sg11
V\u7eaa\u5fd7\u9896
p336
sbsVliangxingang
p337
(i__main__
Person
p338
(dp339
g5
(lp340
S'17791961400'
p341
asg9
S'17535226491177088'
p342
sg11
V\u6881\u65b0\u521a
p343
sbsVshidai
p344
(i__main__
Person
p345
(dp346
g5
(lp347
S'15939028836'
p348
asg9
S'5841301720795137'
p349
sg11
V\u65f6\u4ee3
p350
sbsVsunjing
p351
(i__main__
Person
p352
(dp353
g5
(lp354
S'13811014951'
p355
asg9
S'5841301729443840'
p356
sg11
V\u5b59\u6676
p357
sbsVzhangdashuai
p358
(i__main__
Person
p359
(dp360
g5
(lp361
S'18695863710'
p362
asg9
S'5841301816999936'
p363
sg11
V\u5f20\u5927\u5e05
p364
sbsVwangyaohua
p365
(i__main__
Person
p366
(dp367
g5
(lp368
S'13803832972'
p369
aS'18637179096'
p370
asg9
S'5841301763524480'
p371
sg11
V\u738b\u8981\u534e
p372
sbsVzhaolekai
p373
(i__main__
Person
p374
(dp375
g5
(lp376
S'13051457532'
p377
asg9
S'5841301860777984'
p378
sg11
V\u8d75\u4e50\u607a
p379
sbsVjiangangshu
p380
(i__main__
Person
p381
(dp382
g5
(lp383
S'13849195934'
p384
asg9
S'5841301572157440'
p385
sg11
V\u5efa\u521a\u53d4
p386
sbsVhuangjinchengzhongxing
p387
(i__main__
Person
p388
(dp389
g5
(lp390
S'18923776629'
p391
asg9
S'5841301557741824'
p392
sg11
V\u9ec4\u91d1\u57ce\u4e2d\u5174
p393
sbsVzhanghui
p394
(i__main__
Person
p395
(dp396
g5
(lp397
S'18629246209'
p398
asg9
S'5841301825128704'
p399
sg11
V\u5f20\u8f89
p400
sbsVwangguangshan
p401
(i__main__
Person
p402
(dp403
g5
(lp404
S'13511067811'
p405
asg9
S'5841301748056064'
p406
sg11
V\u738b\u5e7f\u5584
p407
sbsVhuangxingzhouSPRT
p408
(i__main__
Person
p409
(dp410
g5
(lp411
S'18620302610'
p412
asg9
S'5841301561411584'
p413
sg11
V\u9ec4\u5e78\u5468SPRT
p414
sbsVkuaididebang
p415
(i__main__
Person
p416
(dp417
g5
(lp418
S'13949058242'
p419
asg9
S'5841301582645248'
p420
sg11
V\u5feb\u9012\u5fb7\u90a6
p421
sbsVhuangzhenwei
p422
(i__main__
Person
p423
(dp424
g5
(lp425
S'15601239997'
p426
asg9
S'5841301564557184'
p427
sg11
V\u9ec4\u9707\u4f1f
p428
sbsVlizhongwei
p429
(i__main__
Person
p430
(dp431
g5
(lp432
S'13460323892'
p433
asg9
S'5841301662075136'
p434
sg11
V\u674e\u4e2d\u4f1f
p435
sbsVwangfang
p436
(i__main__
Person
p437
(dp438
g5
(lp439
S'15890029152'
p440
asg9
S'5841301745961217'
p441
sg11
V\u738b\u82b3
p442
sbsVdabo
p443
(i__main__
Person
p444
(dp445
g5
(lp446
S'13783580181'
p447
asg9
S'5841301519468672'
p448
sg11
V\u5927\u4f2f
p449
sbsVwangfuling
p450
(i__main__
Person
p451
(dp452
g5
(lp453
S'13937190033'
p454
asg9
S'5841301747009408'
p455
sg11
V\u738b\u5bcc\u73b2
p456
sbsVwuchang
p457
(i__main__
Person
p458
(dp459
g5
(lp460
S'15603730627'
p461
asg9
S'5841301775583104'
p462
sg11
V\u5434\u660c
p463
sbsVliuwenqiang
p464
(i__main__
Person
p465
(dp466
g5
(lp467
S'18633331163'
p468
asg9
S'5841301613578112'
p469
sg11
V\u5218\u6587\u5f3a
p470
sbsVyangqingqing
p471
(i__main__
Person
p472
(dp473
g5
(lp474
S'13623676261'
p475
asg9
S'5841301802584064'
p476
sg11
V\u6768\u9752\u9752
p477
sbsVchenhui
p478
(i__main__
Person
p479
(dp480
g5
(lp481
S'13911734106'
p482
asg9
S'5841301510031360'
p483
sg11
V\u9648\u8f89
p484
sbsVlutiequan
p485
(i__main__
Person
p486
(dp487
g5
(lp488
S'13803991995'
p489
asg9
S'5841301669414912'
p490
sg11
V\u9c81\u94c1\u62f3
p491
sbsVwangyong
p492
(i__main__
Person
p493
(dp494
g5
(lp495
S'13848157398'
p496
asg9
S'7771557417976448'
p497
sg11
V\u738b\u52c7
p498
sbsVwuziqiang
p499
(i__main__
Person
p500
(dp501
g5
(lp502
S'18310095772'
p503
asg9
S'10399295202396160'
p504
sg11
V\u5434\u5b50\u5f3a
p505
sbsVluyan
p506
(i__main__
Person
p507
(dp508
g5
(lp509
S'18611685511'
p510
aS'13811232643'
p511
asg9
S'5841301670725760'
p512
sg11
V\u9e7f\u5ca9
p513
sbsVwangzhibin
p514
(i__main__
Person
p515
(dp516
g5
(lp517
S'18618253205'
p518
asg9
S'5841301770864896'
p519
sg11
V\u738b\u5fd7\u5bbe
p520
sbsVyanhui
p521
(i__main__
Person
p522
(dp523
g5
(lp524
S'15210659786'
p525
asg9
S'6635245310051072'
p526
sg11
V\u95eb\u6167
p527
sbsVjianglei
p528
(i__main__
Person
p529
(dp530
g5
(lp531
S'13581584654'
p532
asg9
S'5841301569273856'
p533
sg11
V\u59dc\u78ca
p534
sbsVchensiyu
p535
(i__main__
Person
p536
(dp537
g5
(lp538
S'13501069585'
p539
asg9
S'5841301513439104'
p540
sg11
V\u9648\u601d\u79b9
p541
sbsVwangqiangdingli
p542
(i__main__
Person
p543
(dp544
g5
(lp545
S'18600263313'
p546
asg9
S'5841301757495168'
p547
sg11
V\u738b\u5f3a\u9f0e\u7acb
p548
sbsVshizhuren
p549
(i__main__
Person
p550
(dp551
g5
(lp552
S'13703710094'
p553
asg9
S'5841301719484288'
p554
sg11
V\u53f2\u4e3b\u4efb
p555
sbsVzhenghaijuan
p556
(i__main__
Person
p557
(dp558
g5
(lp559
S'+8615874016039'
p560
asg9
S'6317042409669248'
p561
sg11
V\u90d1\u6d77\u5a1f
p562
sbsVpangzhenpeng
p563
(i__main__
Person
p564
(dp565
g5
(lp566
S'13803852403'
p567
asg9
S'5841301701658496'
p568
sg11
V\u5e9e\u632f\u9e4f
p569
sbsVwangxianghuawei
p570
(i__main__
Person
p571
(dp572
g5
(lp573
S'18037110409'
p574
asg9
S'5841301760903168'
p575
sg11
V\u738b\u7965\u534e\u4e3a
p576
sbsVyangjunfeng
p577
(i__main__
Person
p578
(dp579
g5
(lp580
S'15838329594'
p581
asg9
S'5841301799962752'
p582
sg11
V\u6768\u5cfb\u5cf0
p583
sbsVsuileilei
p584
(i__main__
Person
p585
(dp586
g5
(lp587
S'18811215408'
p588
asg9
S'7454884335453312'
p589
sg11
V\u772d\u78ca\u78ca
p590
sbsVyixianqing
p591
(i__main__
Person
p592
(dp593
g5
(lp594
S'18611735051'
p595
asg9
S'5841301813594368'
p596
sg11
V\u4f0a\u5baa\u5e86
p597
sbsVlinju\uff5egongjijin
p598
(i__main__
Person
p599
(dp600
g5
(lp601
S'13598018350'
p602
asg9
S'14106230439020544'
p603
sg11
V\u90bb\u5c45\uff5e\u516c\u79ef\u91d1
p604
sbsVshisao
p605
(i__main__
Person
p606
(dp607
g5
(lp608
S'13837128697'
p609
asg9
S'5841301722106113'
p610
sg11
V\u77f3\u5ac2
p611
sbsVchenbing
p612
(i__main__
Person
p613
(dp614
g5
(lp615
S'13966652922'
p616
asg9
S'5841301504788352'
p617
sg11
V\u9648\u5175
p618
sbsVjiangyanjun
p619
(i__main__
Person
p620
(dp621
g5
(lp622
S'13569852670'
p623
asg9
S'5841301570849024'
p624
sg11
V\u59dc\u8273\u519b
p625
sbsVwanglijun
p626
(i__main__
Person
p627
(dp628
g5
(lp629
S'18600016822'
p630
asg9
S'5841301756184576'
p631
sg11
V\u738b\u4e3d\u541b
p632
sbsVzhangxiaobing
p633
(i__main__
Person
p634
(dp635
g5
(lp636
S'15132642840'
p637
asg9
S'5841301837711488'
p638
sg11
V\u5f20\u5c0f\u5175
p639
sbsVlihao
p640
(i__main__
Person
p641
(dp642
g5
(lp643
S'13592666648'
p644
asg9
S'5841301623015680'
p645
sg11
V\u674e\u6d69
p646
sbsVchengyongqiang
p647
(i__main__
Person
p648
(dp649
g5
(lp650
S'15093116090'
p651
asg9
S'5841301503478016'
p652
sg11
V\u7a0b\u6c38\u5f3a
p653
sbsVchengba
p654
(i__main__
Person
p655
(dp656
g5
(lp657
S'13782012267'
p658
asg9
S'5841301500069888'
p659
sg11
V\u7a0b\u7238
p660
sbsVyeye
p661
(i__main__
Person
p662
(dp663
g5
(lp664
S'15638234155'
p665
asg9
S'5841301809923968'
p666
sg11
V\u7237\u7237
p667
sbsVxieyanhui
p668
(i__main__
Person
p669
(dp670
g5
(lp671
S'13526664956'
p672
asg9
S'5841301782136832'
p673
sg11
V\u8c22\u4e25\u8f89
p674
sbsVzhangyuchen
p675
(i__main__
Person
p676
(dp677
g5
(lp678
S'13803850043'
p679
asg9
S'5841301848197120'
p680
sg11
V\u5f20\u5b87\u8fb0
p681
sbsVlijiechang
p682
(i__main__
Person
p683
(dp684
g5
(lp685
S'13633851258'
p686
asg9
S'5841301626947584'
p687
sg11
V\u674e\u6770\u660c
p688
sbsVjiangdongyu
p689
(i__main__
Person
p690
(dp691
g5
(lp692
S'13837121188'
p693
asg9
S'5841301567440896'
p694
sg11
V\u59dc\u4e1c\u7389
p695
sbsVruige
p696
(i__main__
Person
p697
(dp698
g5
(lp699
S'13592600933'
p700
asg9
S'5841301733113856'
p701
sg11
V\u745e\u54e5
p702
sbsVxueyongqiang
p703
(i__main__
Person
p704
(dp705
g5
(lp706
S'13691342031'
p707
asg9
S'5841301785020416'
p708
sg11
V\u859b\u6c38\u5f3a
p709
sbsVliuwenbing
p710
(i__main__
Person
p711
(dp712
g5
(lp713
S'15801203201'
p714
asg9
S'5841301611743104'
p715
sg11
V\u5218\u6587\u51b0
p716
sbsVluxingguo
p717
(i__main__
Person
p718
(dp719
g5
(lp720
S'15938782589'
p721
aS'18638133782'
p722
asg9
S'5841301664696576'
p723
sg11
V\u5362\u661f\u56fd
p724
sbsVyangguohui
p725
(i__main__
Person
p726
(dp727
g5
(lp728
S'15217760511'
p729
asg9
S'5841301797341056'
p730
sg11
V\u6768\u56fd\u8f89
p731
sbsVchenjiaxing
p732
(i__main__
Person
p733
(dp734
g5
(lp735
S'15560209335'
p736
asg9
S'5841301510817792'
p737
sg11
V\u9648\u5bb6\u661f
p738
sbsVlisi
p739
(i__main__
Person
p740
(dp741
S'tels'
p742
(lp743
S'123eeeeee'
p744
asS'uid'
p745
S'0000000000000000'
p746
sS'fn'
p747
V\u674e\u56db
p748
sbsVzhangyucun
p749
(i__main__
Person
p750
(dp751
g5
(lp752
S'13513716009'
p753
asg9
S'5841301850030080'
p754
sg11
V\u5f20\u715c\u5b58
p755
sbsVliaojigang
p756
(i__main__
Person
p757
(dp758
g5
(lp759
S'13787310880'
p760
asg9
S'5841301590509697'
p761
sg11
V\u5ed6\u7ee7\u521a
p762
sbsVchenjing
p763
(i__main__
Person
p764
(dp765
g5
(lp766
S'13521451118'
p767
asg9
S'5841301511604096'
p768
sg11
V\u9648\u9759
p769
sbsVwangzhe
p770
(i__main__
Person
p771
(dp772
g5
(lp773
S'15038071356'
p774
asg9
S'5841301770340352'
p775
sg11
V\u738b\u54f2
p776
sbsVdongqu5loujiankong
p777
(i__main__
Person
p778
(dp779
g5
(lp780
S'15039069044'
p781
asg9
S'5841301522614144'
p782
sg11
V\u4e1c\u533a5\u697c\u76d1\u63a7
p783
sbsVmiaoxiaoqiao
p784
(i__main__
Person
p785
(dp786
g5
(lp787
S'13837189207'
p788
asg9
S'5841301674395520'
p789
sg11
V\u82d7\u6653\u5de7
p790
sbsVyangbin
p791
(i__main__
Person
p792
(dp793
g5
(lp794
S'13810898041'
p795
asg9
S'7315992699995648'
p796
sg11
V\u6768\u658c
p797
sbsVtaming
p798
(i__main__
Person
p799
(dp800
g5
(lp801
S'13366819500'
p802
asg9
S'5841301740717952'
p803
sg11
V\u62d3\u660e
p804
sbsVdagu
p805
(i__main__
Person
p806
(dp807
g5
(lp808
S'13462587684'
p809
asg9
S'5841301521041536'
p810
sg11
V\u5927\u59d1
p811
sbsVzhangwensheng
p812
(i__main__
Person
p813
(dp814
g5
(lp815
S'18659213370'
p816
asg9
S'5841301834301440'
p817
sg11
V\u5f20\u6587\u751f
p818
sbsVliuyang
p819
(i__main__
Person
p820
(dp821
g5
(lp822
S'18618416538'
p823
asg9
S'12686909964290432'
p824
sg11
V\u5218\u9633
p825
sbsVhuyi
p826
(i__main__
Person
p827
(dp828
g5
(lp829
S'15649378305'
p830
asg9
S'14565941930886528'
p831
sg11
V\u80e1\u59e8
p832
sbsVchenge
p833
(i__main__
Person
p834
(dp835
g5
(lp836
S'13683912164'
p837
asg9
S'5841301506099200'
p838
sg11
V\u9648\u54e5
p839
sbsVlaidianzhuanxian
p840
(i__main__
Person
p841
(dp842
g5
(lp843
S'4008016062'
p844
aS'4009180338'
p845
aS'07507841000'
p846
aS'02886544200'
p847
aS'059528394996'
p848
aS'4008257119'
p849
aS'4008640166'
p850
aS'075583765566'
p851
aS'02886544201'
p852
aS'02886544226'
p853
aS'059522564190'
p854
aS'059528394740'
p855
asg9
S'17393708914706560'
p856
sg11
V\u6765\u7535\u4e13\u7ebf
p857
sbsVguochao
p858
(i__main__
Person
p859
(dp860
g5
(lp861
S'13587665005'
p862
asg9
S'5841301544110208'
p863
sg11
V\u90ed\u8d85
p864
sbsVningbo
p865
(i__main__
Person
p866
(dp867
g5
(lp868
S'13511020882'
p869
asg9
S'12456805709646336'
p870
sg11
V\u5b81\u6ce2
p871
sbsVqianjinfei
p872
(i__main__
Person
p873
(dp874
g5
(lp875
S'18601231505'
p876
asg9
S'5841301706639360'
p877
sg11
V\u94b1\u664b\u83f2
p878
sbsVxiaoshu
p879
(i__main__
Person
p880
(dp881
g5
(lp882
S'18037312439'
p883
asg9
S'5841301778204928'
p884
sg11
V\u5c0f\u53d4
p885
sbsVyanfengge
p886
(i__main__
Person
p887
(dp888
g5
(lp889
S'13525692256'
p890
asg9
S'5841301806516480'
p891
sg11
V\u5ca9\u5cf0\u54e5
p892
sbsVzhangxiaofeng
p893
(i__main__
Person
p894
(dp895
g5
(lp896
S'18736089556'
p897
asg9
S'5841301836662784'
p898
sg11
V\u5f20\u5578\u98ce
p899
sbsVcaiweihua
p900
(i__main__
Person
p901
(dp902
g5
(lp903
S'13716826994'
p904
asg9
S'6296300695325312'
p905
sg11
V\u8521\u4f1f\u534e
p906
sbsVjiejie
p907
(i__main__
Person
p908
(dp909
g5
(lp910
S'13598200273'
p911
asg9
S'5841301575305216'
p912
sg11
V\u59d0\u59d0
p913
sbsVgaofei
p914
(i__main__
Person
p915
(dp916
g5
(lp917
S'13701060796'
p918
asg9
S'5841301539653760'
p919
sg11
V\u9ad8\u98de
p920
sbsVzhangsen
p921
(i__main__
Person
p922
(dp923
g5
(lp924
S'13653853823'
p925
aS'15109526778'
p926
asg9
S'5841301832730880'
p927
sg11
V\u5f20\u68ee
p928
sbsVhanming
p929
(i__main__
Person
p930
(dp931
g5
(lp932
S'13460666199'
p933
asg9
S'5841301545682944'
p934
sg11
V\u6c49\u94ed
p935
sbsVliyu
p936
(i__main__
Person
p937
(dp938
g5
(lp939
S'18612962560'
p940
aS'13945048272'
p941
asg9
S'5841301660764288'
p942
sg11
V\u674e\u79b9
p943
sbsVsushijie
p944
(i__main__
Person
p945
(dp946
g5
(lp947
S'15839893835'
p948
asg9
S'5841301736261633'
p949
sg11
V\u82cf\u58eb\u6770
p950
sbsVzhangfeng
p951
(i__main__
Person
p952
(dp953
g5
(lp954
S'13837101110'
p955
asg9
S'8543095469639680'
p956
sg11
V\u5f20\u5cf0
p957
sbsVwangzhifeng
p958
(i__main__
Person
p959
(dp960
g5
(lp961
S'15037117302'
p962
asg9
S'5841301771124736'
p963
sg11
V\u738b\u5fd7\u5cf0
p964
sbsVchengjianpeng
p965
(i__main__
Person
p966
(dp967
g5
(lp968
S'18336844881'
p969
asg9
S'5841301501118592'
p970
sg11
V\u7a0b\u5efa\u9e4f
p971
sbsVhoujunli
p972
(i__main__
Person
p973
(dp974
g5
(lp975
S'13811346525'
p976
asg9
S'5841301549877248'
p977
sg11
V\u4faf\u4fca\u4e3d
p978
sbsVzhouhui
p979
(i__main__
Person
p980
(dp981
g5
(lp982
S'18612188345'
p983
asg9
S'5841301866547328'
p984
sg11
V\u5468\u6167
p985
sbsVshenghuan
p986
(i__main__
Person
p987
(dp988
g5
(lp989
S'18608410876'
p990
asg9
S'5841301717647360'
p991
sg11
V\u76db\u6b22
p992
sbsVrenwei
p993
(i__main__
Person
p994
(dp995
g5
(lp996
S'13811279748'
p997
asg9
S'5841301709260928'
p998
sg11
V\u4efb\u4f1f
p999
sbsVlixia
p1000
(i__main__
Person
p1001
(dp1002
g5
(lp1003
S'18757881286'
p1004
aS'18838046988'
p1005
asg9
S'5841301655783424'
p1006
sg11
V\u674e\u971e
p1007
sbsVliangtian
p1008
(i__main__
Person
p1009
(dp1010
g5
(lp1011
S'18612221390'
p1012
asg9
S'9628887233069312'
p1013
sg11
V\u6881\u7530
p1014
sbsVwangzhaogang
p1015
(i__main__
Person
p1016
(dp1017
g5
(lp1018
S'13810952354'
p1019
asg9
S'5841301769553920'
p1020
sg11
V\u738b\u5146\u521a
p1021
sbsVliqi
p1022
(i__main__
Person
p1023
(dp1024
g5
(lp1025
S'13303867656'
p1026
asg9
S'5841301638482049'
p1027
sg11
V\u674e\u5947
p1028
sbsVfengzhongfei
p1029
(i__main__
Person
p1030
(dp1031
g5
(lp1032
S'13663819767'
p1033
asg9
S'5841301533100160'
p1034
sg11
V\u51af\u4e2d\u98de
p1035
sbsVwangyu
p1036
(i__main__
Person
p1037
(dp1038
g5
(lp1039
S'13837175625'
p1040
asg9
S'5841301767981184'
p1041
sg11
V\u738b\u5b87
p1042
sbsVzoujunSPRT
p1043
(i__main__
Person
p1044
(dp1045
g5
(lp1046
S'13713608946'
p1047
asg9
S'5841301872576640'
p1048
sg11
V\u90b9\u519bSPRT
p1049
sbsVzhouhuibin
p1050
(i__main__
Person
p1051
(dp1052
g5
(lp1053
S'15817415974'
p1054
asg9
S'5841301867595904'
p1055
sg11
V\u5468\u6167\u658c
p1056
sbsVdanhuaifeng
p1057
(i__main__
Person
p1058
(dp1059
g5
(lp1060
S'13811525276'
p1061
asg9
S'5841301518419968'
p1062
sg11
V\u5355\u6000\u950b
p1063
sbsVlinan
p1064
(i__main__
Person
p1065
(dp1066
g5
(lp1067
S'15136288088'
p1068
asg9
S'5841301632188416'
p1069
sg11
V\u674e\u6960
p1070
sbsVluguoqiang
p1071
(i__main__
Person
p1072
(dp1073
g5
(lp1074
S'13783666011'
p1075
asg9
S'5841301665745152'
p1076
sg11
V\u82a6\u56fd\u5f3a
p1077
sbsVliqiang
p1078
(i__main__
Person
p1079
(dp1080
g5
(lp1081
S'18629010230'
p1082
asg9
S'5841301637695488'
p1083
sg11
V\u674e\u5f3a
p1084
sbsVdongxuantong
p1085
(i__main__
Person
p1086
(dp1087
g5
(lp1088
S'13911260403'
p1089
asg9
S'5841301527857024'
p1090
sg11
V\u8463\u8f69\u5f64
p1091
sbsVwangda
p1092
(i__main__
Person
p1093
(dp1094
g5
(lp1095
S'13676956163'
p1096
asg9
S'15333185637844992'
p1097
sg11
V\u738b\u8fbe
p1098
sbsVsanshu
p1099
(i__main__
Person
p1100
(dp1101
g5
(lp1102
S'13598081490'
p1103
aS'037168326458'
p1104
asg9
S'5841301715814401'
p1105
sg11
V\u4e09\u53d4
p1106
sbsVliuwei
p1107
(i__main__
Person
p1108
(dp1109
g5
(lp1110
S'15101060104'
p1111
asg9
S'5841301609906176'
p1112
sg11
V\u5218\u536b
p1113
sbsVduyuan
p1114
(i__main__
Person
p1115
(dp1116
g5
(lp1117
S'13391843997'
p1118
asg9
S'10082465662896512'
p1119
sg11
V\u675c\u5a9b
p1120
sbsVtangjihong
p1121
(i__main__
Person
p1122
(dp1123
g5
(lp1124
S'13938510719'
p1125
asg9
S'5841301737310208'
p1126
sg11
V\u5510\u7ee7\u7ea2
p1127
sbsVshiyu
p1128
(i__main__
Person
p1129
(dp1130
g5
(lp1131
S'18701122364'
p1132
asg9
S'5841301724465152'
p1133
sg11
V\u77f3\u7389
p1134
sbsVlipingan
p1135
(i__main__
Person
p1136
(dp1137
g5
(lp1138
S'13663819652'
p1139
asg9
S'5841301636646912'
p1140
sg11
V\u674e\u5e73\u5b89
p1141
sbsVhoujun
p1142
(i__main__
Person
p1143
(dp1144
g5
(lp1145
S'13126589069'
p1146
asg9
S'5841301547515904'
p1147
sg11
V\u4faf\u4fca
p1148
sbsVpengyongwen
p1149
(i__main__
Person
p1150
(dp1151
g5
(lp1152
S'18610536748'
p1153
asg9
S'9857241629327744'
p1154
sg11
V\u5f6d\u6c38\u6587
p1155
sbsVtianzhipeng
p1156
(i__main__
Person
p1157
(dp1158
g5
(lp1159
S'13343163739'
p1160
asg9
S'5841301739145344'
p1161
sg11
V\u7530\u5fd7\u9e4f
p1162
sbsVxuyan
p1163
(i__main__
Person
p1164
(dp1165
g5
(lp1166
S'13996316130'
p1167
asg9
S'5841301790787840'
p1168
sg11
V\u5f90\u8a00
p1169
sbsVzhuranbing
p1170
(i__main__
Person
p1171
(dp1172
g5
(lp1173
S'13316921666'
p1174
asg9
S'5841301870217088'
p1175
sg11
V\u6731\u7136\u70b3
p1176
sbsVshaopin
p1177
(i__main__
Person
p1178
(dp1179
g5
(lp1180
S'13148319632'
p1181
asg9
S'5841301717387137'
p1182
sg11
V\u90b5\u54c1
p1183
sbsVkouxuejin
p1184
(i__main__
Person
p1185
(dp1186
g5
(lp1187
S'18553907075'
p1188
aS'15110078685'
p1189
asg9
S'5841301581334656'
p1190
sg11
V\u5bc7\u5b66\u9526
p1191
sbsVyoushoufeng
p1192
(i__main__
Person
p1193
(dp1194
g5
(lp1195
S'18910600530'
p1196
asg9
S'5841301816215552'
p1197
sg11
V\u7531\u5b88\u5cf0
p1198
sbsVzhangyouming
p1199
(i__main__
Person
p1200
(dp1201
g5
(lp1202
S'15838787593'
p1203
asg9
S'5841301845313408'
p1204
sg11
V\u5f20\u6709\u660e
p1205
sbsVzhangguanghui
p1206
(i__main__
Person
p1207
(dp1208
g5
(lp1209
S'18611847248'
p1210
aS'13949098678'
p1211
asg9
S'5841301821194240'
p1212
sg11
V\u5f20\u5149\u8f89
p1213
sbsVgaosongyan
p1214
(i__main__
Person
p1215
(dp1216
g5
(lp1217
S'13811957331'
p1218
asg9
S'5841301540700160'
p1219
sg11
V\u9ad8\u677e\u5ca9
p1220
sbsVkongxuefeng
p1221
(i__main__
Person
p1222
(dp1223
g5
(lp1224
S'13810818143'
p1225
asg9
S'5841301578973184'
p1226
sg11
V\u5b54\u5b66\u5cf0
p1227
sbsVzhuyiming
p1228
(i__main__
Person
p1229
(dp1230
g5
(lp1231
S'13804111065'
p1232
asg9
S'5841301871003520'
p1233
sg11
V\u6731\u76ca\u660e
p1234
sbsVkangwenning
p1235
(i__main__
Person
p1236
(dp1237
g5
(lp1238
S'18734841881'
p1239
asg9
S'5841301577926912'
p1240
sg11
V\u5eb7\u6587\u5b81
p1241
sbsVbaowenjuan
p1242
(i__main__
Person
p1243
(dp1244
g5
(lp1245
S'13911160149'
p1246
asg9
S'5841301495351297'
p1247
sg11
V\u5b9d\u6587\u5a1f
p1248
sbsVdongjunshe
p1249
(i__main__
Person
p1250
(dp1251
g5
(lp1252
S'18681865276'
p1253
asg9
S'5841301526808832'
p1254
sg11
V\u8463\u519b\u793e
p1255
sbsVxukaiqing
p1256
(i__main__
Person
p1257
(dp1258
g5
(lp1259
S'15210103053'
p1260
asg9
S'5841301785804800'
p1261
sg11
V\u5f90\u5f00\u6e05
p1262
sbsVshaomian
p1263
(i__main__
Person
p1264
(dp1265
g5
(lp1266
S'18037113887'
p1267
asg9
S'5841301716076800'
p1268
sg11
V\u90b5\u52c9
p1269
sbsVyanxiaohong
p1270
(i__main__
Person
p1271
(dp1272
g5
(lp1273
S'15319481620'
p1274
asg9
S'5887983214659456'
p1275
sg11
V\u960e\u6653\u7ea2
p1276
sbsVgaoliqiang
p1277
(i__main__
Person
p1278
(dp1279
g5
(lp1280
S'13838250255'
p1281
asg9
S'5841301540702080'
p1282
sg11
V\u9ad8\u5229\u5f3a
p1283
sbsVwangyuanfeng
p1284
(i__main__
Person
p1285
(dp1286
g5
(lp1287
S'13903867825'
p1288
asg9
S'5841301766408448'
p1289
sg11
V\u738b\u5143\u5cf0
p1290
sbsVxiaoxu
p1291
(i__main__
Person
p1292
(dp1293
g5
(lp1294
S'15093382885'
p1295
asg9
S'5841301779515392'
p1296
sg11
V\u5c0f\u8bb8
p1297
sbsVzhangduo
p1298
(i__main__
Person
p1299
(dp1300
g5
(lp1301
S'18749002013'
p1302
aS'15832165623'
p1303
asg9
S'5841301821196288'
p1304
sg11
V\u5f20\u94ce
p1305
sbsVzhaowei
p1306
(i__main__
Person
p1307
(dp1308
g5
(lp1309
S'18618287993'
p1310
asg9
S'5841301863925760'
p1311
sg11
V\u8d75\u4f1f
p1312
sbsVjiaopeng
p1313
(i__main__
Person
p1314
(dp1315
g5
(lp1316
S'15353561507'
p1317
asg9
S'6293585619845504'
p1318
sg11
V\u7126\u9e4f
p1319
sbsVyinzhen
p1320
(i__main__
Person
p1321
(dp1322
g5
(lp1323
S'13607680661'
p1324
asg9
S'5841301811234688'
p1325
sg11
V\u6bb7\u8d1e
p1326
sbsVmichaoyong
p1327
(i__main__
Person
p1328
(dp1329
g5
(lp1330
S'18611735213'
p1331
asg9
S'9628887233331584'
p1332
sg11
V\u7c73\u671d\u52c7
p1333
sbsVliuxuewei
p1334
(i__main__
Person
p1335
(dp1336
g5
(lp1337
S'18638006906'
p1338
asg9
S'17302150466767104'
p1339
sg11
V\u5218\u5b66\u5a01
p1340
sbsVyinzhe
p1341
(i__main__
Person
p1342
(dp1343
g5
(lp1344
S'13601369020'
p1345
asg9
S'5841301811494912'
p1346
sg11
V\u6bb7\u5586
p1347
sbsVmaning
p1348
(i__main__
Person
p1349
(dp1350
g5
(lp1351
S'15037107890'
p1352
asg9
S'5888824815912832'
p1353
sg11
V\u9a6c\u5b81
p1354
sbsVwanglei
p1355
(i__main__
Person
p1356
(dp1357
g5
(lp1358
S'13938215055'
p1359
asg9
S'5841301751988224'
p1360
sg11
V\u738b\u78ca
p1361
sbsVmama
p1362
(i__main__
Person
p1363
(dp1364
g5
(lp1365
S'15517182247'
p1366
asg9
S'5841301673085057'
p1367
sg11
V\u5988\u5988
p1368
sbsVzhangdong
p1369
(i__main__
Person
p1370
(dp1371
g5
(lp1372
S'13503816463'
p1373
asg9
S'5841301820147840'
p1374
sg11
V\u5f20\u51ac
p1375
sbsVdimanle
p1376
(i__main__
Person
p1377
(dp1378
g5
(lp1379
S'15036132718'
p1380
asg9
S'13026016831998080'
p1381
sg11
V\u90b8\u66fc\u4e50
p1382
sbsVzhengxiaojun
p1383
(i__main__
Person
p1384
(dp1385
g5
(lp1386
S'15309216966'
p1387
asg9
S'5841301864712192'
p1388
sg11
V\u90d1\u5c0f\u519b
p1389
sbsVhange
p1390
(i__main__
Person
p1391
(dp1392
g5
(lp1393
S'13838780986'
p1394
asg9
S'5841301546469248'
p1395
sg11
V\u97e9\u54e5
p1396
sbsVzhaobo-dianyuan
p1397
(i__main__
Person
p1398
(dp1399
g5
(lp1400
S'13838075848'
p1401
asg9
S'5841301857896320'
p1402
sg11
V\u8d75\u6ce2-\u7535\u6e90
p1403
sbsVlanchunyu
p1404
(i__main__
Person
p1405
(dp1406
g5
(lp1407
S'15201017300'
p1408
asg9
S'10082465663158656'
p1409
sg11
V\u5170\u6625\u96e8
p1410
sbsVliwei
p1411
(i__main__
Person
p1412
(dp1413
g5
(lp1414
S'13903839921'
p1415
asg9
S'5841301647657216'
p1416
sg11
V\u674e\u8473
p1417
sbsVbaihaohan
p1418
(i__main__
Person
p1419
(dp1420
g5
(lp1421
S'13683837536'
p1422
asg9
S'5841301547780096'
p1423
sg11
V\u767d\u6d69\u701a
p1424
sbsVnieshuo
p1425
(i__main__
Person
p1426
(dp1427
g5
(lp1428
S'18618320992'
p1429
asg9
S'5841301695891456'
p1430
sg11
V\u8042\u7855
p1431
sbsVzhangtiaopiao
p1432
(i__main__
Person
p1433
(dp1434
g5
(lp1435
S'13838368717'
p1436
asg9
S'5841301856061440'
p1437
sg11
V\u957f\u6761\u7968
p1438
sbsVzhangxinping3Gwangka
p1439
(i__main__
Person
p1440
(dp1441
g5
(lp1442
S'15038100390'
p1443
asg9
S'5841301838497792'
p1444
sg11
V\u5f20\u65b0\u5e733G\u7f51\u5361
p1445
sbsVtianyaohua
p1446
(i__main__
Person
p1447
(dp1448
g5
(lp1449
S'18611458608'
p1450
asg9
S'14543583890639104'
p1451
sg11
V\u7530\u8000\u534e
p1452
sbsVyuanzhao
p1453
(i__main__
Person
p1454
(dp1455
g5
(lp1456
S'18910891868'
p1457
asg9
S'5841301815951360'
p1458
sg11
V\u82d1\u662d
p1459
sbsVliyanyan
p1460
(i__main__
Person
p1461
(dp1462
g5
(lp1463
S'13938518207'
p1464
asg9
S'5841301659191552'
p1465
sg11
V\u674e\u71d5\u71d5
p1466
sbsVlilinghua
p1467
(i__main__
Person
p1468
(dp1469
g5
(lp1470
S'13510249583'
p1471
asg9
S'5841301629306752'
p1472
sg11
V\u674e\u51cc\u534e
p1473
sbsVsongdandan
p1474
(i__main__
Person
p1475
(dp1476
g5
(lp1477
S'18618323402'
p1478
asg9
S'6635145519170048'
p1479
sg11
V\u5b8b\u4e39\u4e39
p1480
sbsVsudong
p1481
(i__main__
Person
p1482
(dp1483
g5
(lp1484
S'18611347631'
p1485
asg9
S'5841301735475200'
p1486
sg11
V\u82cf\u4e1c
p1487
sbsVyelin
p1488
(i__main__
Person
p1489
(dp1490
g5
(lp1491
S'18820036760'
p1492
asg9
S'7819545527452032'
p1493
sg11
V\u53f6\u9716
p1494
sbsVbaihefei
p1495
(i__main__
Person
p1496
(dp1497
g5
(lp1498
S'13501301354'
p1499
asg9
S'5841301494564992'
p1500
sg11
V\u767d\u9e64\u98de
p1501
sbsVlinanDZ
p1502
(i__main__
Person
p1503
(dp1504
g5
(lp1505
S'13526621897'
p1506
aS'18037516292'
p1507
asg9
S'5841301633236992'
p1508
sg11
V\u674e\u6960DZ
p1509
sbsVwangxin-jiaozuo
p1510
(i__main__
Person
p1511
(dp1512
g5
(lp1513
S'18837198998'
p1514
asg9
S'5841301761951872'
p1515
sg11
V\u738b\u65b0-\u7126\u4f5c
p1516
sbsVchuxiao
p1517
(i__main__
Person
p1518
(dp1519
g5
(lp1520
S'13598090699'
p1521
asg9
S'5841301516320768'
p1522
sg11
V\u521d\u6653
p1523
sbsVzhaoliming
p1524
(i__main__
Person
p1525
(dp1526
g5
(lp1527
S'15201530432'
p1528
asg9
S'5841301863139456'
p1529
sg11
V\u8d75\u9ece\u660e
p1530
sbsVsongyongpeng
p1531
(i__main__
Person
p1532
(dp1533
g5
(lp1534
S'13331032183'
p1535
aS'18613375963'
p1536
asg9
S'5841301728397184'
p1537
sg11
V\u5b8b\u6c38\u9e4f
p1538
sbsVchenhe
p1539
(i__main__
Person
p1540
(dp1541
g5
(lp1542
S'18639090099'
p1543
aS'15937358872'
p1544
asg9
S'5841301507147776'
p1545
sg11
V\u9648\u6cb3
p1546
sbsVshangwangkaLTE
p1547
(i__main__
Person
p1548
(dp1549
g5
(lp1550
S'15017653114'
p1551
asg9
S'10716698949454336'
p1552
sg11
V\u4e0a\u7f51\u5361LTE
p1553
sbsVchenyongzhong
p1554
(i__main__
Person
p1555
(dp1556
g5
(lp1557
S'13803848263'
p1558
asg9
S'11046231237462016'
p1559
sg11
V\u9648\u6c38\u4e2d
p1560
sbsVweizhuang
p1561
(i__main__
Person
p1562
(dp1563
g5
(lp1564
S'13073714138'
p1565
asg9
S'5841301773746176'
p1566
sg11
V\u9b4f\u5e84
p1567
sbsVlimeng
p1568
(i__main__
Person
p1569
(dp1570
g5
(lp1571
S'15855107828'
p1572
asg9
S'5841301630353408'
p1573
sg11
V\u674e\u8499
p1574
sbsVsunlizhe
p1575
(i__main__
Person
p1576
(dp1577
g5
(lp1578
S'13718723857'
p1579
asg9
S'5841301731019008'
p1580
sg11
V\u5b59\u7acb\u54f2
p1581
sbsVzhangyanhua
p1582
(i__main__
Person
p1583
(dp1584
g5
(lp1585
S'13837186745'
p1586
asg9
S'5841301841381504'
p1587
sg11
V\u5f20\u5ef6\u5316
p1588
sbsVzhangjinwei
p1589
(i__main__
Person
p1590
(dp1591
g5
(lp1592
S'15810459705'
p1593
asg9
S'5841301827749888'
p1594
sg11
V\u5f20\u91d1\u4f1f
p1595
sbsVluxiao
p1596
(i__main__
Person
p1597
(dp1598
g5
(lp1599
S'13911418295'
p1600
asg9
S'8270361329141760'
p1601
sg11
V\u9c81\u5578
p1602
sbsVwangguan
p1603
(i__main__
Person
p1604
(dp1605
g5
(lp1606
S'15936269320'
p1607
asg9
S'5841301749631232'
p1608
sg11
V\u738b\u51a0
p1609
sbsVsijiu
p1610
(i__main__
Person
p1611
(dp1612
g5
(lp1613
S'13723045668'
p1614
asg9
S'5841301726038144'
p1615
sg11
V\u56db\u8205
p1616
sbsVzhanghao
p1617
(i__main__
Person
p1618
(dp1619
g5
(lp1620
S'15810877972'
p1621
asg9
S'5841301824341888'
p1622
sg11
V\u5f20\u6d69
p1623
sbsVmuying
p1624
(i__main__
Person
p1625
(dp1626
g5
(lp1627
S'13810275673'
p1628
asg9
S'5841301689335808'
p1629
sg11
V\u7a46\u83b9
p1630
sbsVhuangxiaoqian
p1631
(i__main__
Person
p1632
(dp1633
g5
(lp1634
S'13526449211'
p1635
asg9
S'14135497533163905'
p1636
sg11
V\u9ec4\u7b71\u831c
p1637
sbsVpanhongyu
p1638
(i__main__
Person
p1639
(dp1640
g5
(lp1641
S'13931208738'
p1642
asg9
S'5841301703231616'
p1643
sg11
V\u6f58\u5b8f\u5b87
p1644
sbsVlingtao
p1645
(i__main__
Person
p1646
(dp1647
g5
(lp1648
S'13811505385'
p1649
asg9
S'5841301589983232'
p1650
sg11
V\u51cc\u6d9b
p1651
sbsVlirui
p1652
(i__main__
Person
p1653
(dp1654
g5
(lp1655
S'13837110098'
p1656
asg9
S'5841301639006080'
p1657
sg11
V\u674e\u9510
p1658
sbsVfulixian
p1659
(i__main__
Person
p1660
(dp1661
g5
(lp1662
S'13810682201'
p1663
asg9
S'5841301534935296'
p1664
sg11
V\u798f\u7acb\u732e
p1665
sbsVzhaojunde
p1666
(i__main__
Person
p1667
(dp1668
g5
(lp1669
S'13603868686'
p1670
asg9
S'5841301860779904'
p1671
sg11
V\u8d75\u4fca\u5fb7
p1672
sbsVzhangxu-zhangshao
p1673
(i__main__
Person
p1674
(dp1675
g5
(lp1676
S'13525661391'
p1677
asg9
S'5841301840070528'
p1678
sg11
V\u5f20\u65ed-\u5f20\u7ecd
p1679
sbsVhuolianyu
p1680
(i__main__
Person
p1681
(dp1682
g5
(lp1683
S'18032285095'
p1684
aS'15810183570'
p1685
asg9
S'5841301566130304'
p1686
sg11
V\u970d\u8fde\u96e8
p1687
sbsVliuhonghai
p1688
(i__main__
Person
p1689
(dp1690
g5
(lp1691
S'18907174400'
p1692
asg9
S'5841301594441728'
p1693
sg11
V\u5218\u7ea2\u6d77
p1694
sbsVzhangyue
p1695
(i__main__
Person
p1696
(dp1697
g5
(lp1698
S'15617851739'
p1699
asg9
S'5841301845573632'
p1700
sg11
V\u5f20\u73a5
p1701
sbsVyangxiyi
p1702
(i__main__
Person
p1703
(dp1704
g5
(lp1705
S'15038291018'
p1706
asg9
S'5841301806516352'
p1707
sg11
V\u6768\u559c\u4e49
p1708
sbsVxushaowei
p1709
(i__main__
Person
p1710
(dp1711
g5
(lp1712
S'13633833107'
p1713
asg9
S'5841301794719744'
p1714
sg11
V\u8bb8\u5c11\u5a01
p1715
sbsVcengdongsheng
p1716
(i__main__
Person
p1717
(dp1718
g5
(lp1719
S'18703695345'
p1720
asg9
S'5841301496924032'
p1721
sg11
V\u66fe\u4e1c\u5347
p1722
sbsVchengma
p1723
(i__main__
Person
p1724
(dp1725
g5
(lp1726
S'13837713505'
p1727
asg9
S'5841301500854272'
p1728
sg11
V\u7a0b\u5988
p1729
sbsVduanliheng
p1730
(i__main__
Person
p1731
(dp1732
g5
(lp1733
S'18638230781'
p1734
asg9
S'15066457805949056'
p1735
sg11
V\u6bb5\u7acb\u6052
p1736
sbsVlijun
p1737
(i__main__
Person
p1738
(dp1739
g5
(lp1740
S'13903711541'
p1741
asg9
S'5841301627996160'
p1742
sg11
V\u674e\u519b
p1743
sbsVchuchao
p1744
(i__main__
Person
p1745
(dp1746
g5
(lp1747
S'18604790841'
p1748
asg9
S'5841301516060928'
p1749
sg11
V\u50a8\u8d85
p1750
sbsVliuwenxin
p1751
(i__main__
Person
p1752
(dp1753
g5
(lp1754
S'15801496243'
p1755
asg9
S'5841301614364545'
p1756
sg11
V\u5218\u6587\u4fe1
p1757
sbsVwangjianzhong
p1758
(i__main__
Person
p1759
(dp1760
g5
(lp1761
S'13760378933'
p1762
asg9
S'5841301752514688'
p1763
sg11
V\u738b\u5efa\u5fe0
p1764
sbsVchengtaishan
p1765
(i__main__
Person
p1766
(dp1767
g5
(lp1768
S'13598600592'
p1769
asg9
S'10175385642731648'
p1770
sg11
V\u7a0b\u6cf0\u5c71
p1771
sbsVsanshen
p1772
(i__main__
Person
p1773
(dp1774
g5
(lp1775
S'13523093123'
p1776
aS'037155970302'
p1777
asg9
S'5841301713715200'
p1778
sg11
V\u4e09\u5a76
p1779
sbsVluoxiaoyu
p1780
(i__main__
Person
p1781
(dp1782
g5
(lp1783
S'18696500916'
p1784
asg9
S'5841301664434304'
p1785
sg11
V\u9a86\u5578\u5b87
p1786
sbsVwangyoupingtai
p1787
(i__main__
Person
p1788
(dp1789
g5
(lp1790
S'18838003015'
p1791
asg9
S'6607664845947392'
p1792
sg11
V\u7f51\u4f18\u5e73\u53f0
p1793
sbsVwanke
p1794
(i__main__
Person
p1795
(dp1796
g5
(lp1797
S'13955119567'
p1798
asg9
S'5841301772699904'
p1799
sg11
V\u4e07\u79d1
p1800
sbsVwanghao
p1801
(i__main__
Person
p1802
(dp1803
g5
(lp1804
S'13783696863'
p1805
asg9
S'6451927211049728'
p1806
sg11
V\u738b\u660a
p1807
sbsVdongguanning
p1808
(i__main__
Person
p1809
(dp1810
g5
(lp1811
S'13802671122'
p1812
asg9
S'5841301526022016'
p1813
sg11
V\u8463\u51a0\u5b81
p1814
sbsVzhangyingfeng
p1815
(i__main__
Person
p1816
(dp1817
g5
(lp1818
S'13670268392'
p1819
asg9
S'5841301844789248'
p1820
sg11
V\u5f20\u8fce\u98ce
p1821
sbsVzhangxueliang
p1822
(i__main__
Person
p1823
(dp1824
g5
(lp1825
S'13674906532'
p1826
asg9
S'5841301839546496'
p1827
sg11
V\u5f20\u5b66\u826f
p1828
sbsVjiejieguhua
p1829
(i__main__
Person
p1830
(dp1831
g5
(lp1832
S'15839930778'
p1833
asg9
S'5841301574778880'
p1834
sg11
V\u59d0\u59d0\u56fa\u8bdd
p1835
sbsVhouwenjuan
p1836
(i__main__
Person
p1837
(dp1838
g5
(lp1839
S'13949053616'
p1840
asg9
S'5841301550925824'
p1841
sg11
V\u4faf\u6587\u5a1f
p1842
sbsVdaitao
p1843
(i__main__
Person
p1844
(dp1845
g5
(lp1846
S'18062561989'
p1847
aS'18695838571'
p1848
asg9
S'9652014531478016'
p1849
sg11
V\u4ee3\u6d9b
p1850
sbsVzhangdi
p1851
(i__main__
Person
p1852
(dp1853
g5
(lp1854
S'15225095072'
p1855
asg9
S'5841301818836864'
p1856
sg11
V\u5f20\u8fea
p1857
sbsVliushuliang
p1858
(i__main__
Person
p1859
(dp1860
g5
(lp1861
S'13911465346'
p1862
asg9
S'16763245274335616'
p1863
sg11
V\u5218\u8ff0\u826f
p1864
sbsVyunvshi
p1865
(i__main__
Person
p1866
(dp1867
g5
(lp1868
S'13027706838'
p1869
asg9
S'15383172547872896'
p1870
sg11
V\u4e8e\u5973\u58eb
p1871
sbsVxuxiaoyang
p1872
(i__main__
Person
p1873
(dp1874
g5
(lp1875
S'18673187614'
p1876
asg9
S'5841301787641728'
p1877
sg11
V\u5f90\u5c0f\u9633
p1878
sbsVyanyi
p1879
(i__main__
Person
p1880
(dp1881
g5
(lp1882
S'13383836078'
p1883
asg9
S'5841301809399808'
p1884
sg11
V\u95eb\u59e8
p1885
sbsVmashaojie
p1886
(i__main__
Person
p1887
(dp1888
g5
(lp1889
S'13903710027'
p1890
asg9
S'5841301673609088'
p1891
sg11
V\u9a6c\u5c11\u6770
p1892
sbsVxufeng
p1893
(i__main__
Person
p1894
(dp1895
g5
(lp1896
S'13910840294'
p1897
asg9
S'16354938990626177'
p1898
sg11
V\u5f90\u5cf0
p1899
sbsVxubingbing
p1900
(i__main__
Person
p1901
(dp1902
g5
(lp1903
S'13523490218'
p1904
asg9
S'5841301785544576'
p1905
sg11
V\u5f90\u51b0\u51b0
p1906
sbsVxingmenghui
p1907
(i__main__
Person
p1908
(dp1909
g5
(lp1910
S'15903621051'
p1911
asg9
S'5841301782661376'
p1912
sg11
V\u90a2\u5b5f\u8f89
p1913
sbsVlishan
p1914
(i__main__
Person
p1915
(dp1916
g5
(lp1917
S'18575621150'
p1918
asg9
S'5841301639792512'
p1919
sg11
V\u674e\u73ca
p1920
sbsVzhanyangjun
p1921
(i__main__
Person
p1922
(dp1923
g5
(lp1924
S'13968052571'
p1925
asg9
S'5841301856059392'
p1926
sg11
V\u8a79\u6768\u519b
p1927
sbsVwangxin
p1928
(i__main__
Person
p1929
(dp1930
g5
(lp1931
S'13212363676'
p1932
asg9
S'5841301762475904'
p1933
sg11
V\u738b\u946b
p1934
sbsVsishen
p1935
(i__main__
Person
p1936
(dp1937
g5
(lp1938
S'15138614985'
p1939
asg9
S'5841301726562176'
p1940
sg11
V\u56db\u5a76
p1941
sbsVjiuye
p1942
(i__main__
Person
p1943
(dp1944
g5
(lp1945
S'037762597239'
p1946
asg9
S'8589701964630016'
p1947
sg11
V\u8205\u7237
p1948
sbsVaihongwei
p1949
(i__main__
Person
p1950
(dp1951
g5
(lp1952
S'13703710066'
p1953
asg9
S'5841301492992257'
p1954
sg11
V\u827e\u7ea2\u4f1f
p1955
sbsVzhulei
p1956
(i__main__
Person
p1957
(dp1958
g5
(lp1959
S'13937191770'
p1960
aS'13937197441'
p1961
asg9
S'5841301868906368'
p1962
sg11
V\u6731\u78ca
p1963
sbsVwangmingjun
p1964
(i__main__
Person
p1965
(dp1966
g5
(lp1967
S'13903710813'
p1968
asg9
S'5841301756971008'
p1969
sg11
V\u738b\u660e\u541b
p1970
sbsVtangchaoya
p1971
(i__main__
Person
p1972
(dp1973
g5
(lp1974
S'18637182862'
p1975
asg9
S'9109600984367616'
p1976
sg11
V\u5510\u8d85\u4e9a
p1977
sbsVzhangshu
p1978
(i__main__
Person
p1979
(dp1980
g5
(lp1981
S'13838387370'
p1982
asg9
S'5841301834041216'
p1983
sg11
V\u5f20\u6f8d
p1984
sbsVwangyepeng
p1985
(i__main__
Person
p1986
(dp1987
g5
(lp1988
S'18511337053'
p1989
aS'18647100514'
p1990
asg9
S'5841301765097728'
p1991
sg11
V\u738b\u4e1a\u9e4f
p1992
sbsVyangcan
p1993
(i__main__
Person
p1994
(dp1995
g5
(lp1996
S'18601100604'
p1997
asg9
S'5841301796292864'
p1998
sg11
V\u6768\u707f
p1999
sbsVnanlihua
p2000
(i__main__
Person
p2001
(dp2002
g5
(lp2003
S'15201683277'
p2004
asg9
S'5841301690908672'
p2005
sg11
V\u5357\u4e3d\u534e
p2006
sbsVgaoboLZ
p2007
(i__main__
Person
p2008
(dp2009
g5
(lp2010
S'13237720433'
p2011
aS'07723115920'
p2012
asg9
S'5841301535983488'
p2013
sg11
V\u9ad8\u4f2fLZ
p2014
sbsVzhongweihong
p2015
(i__main__
Person
p2016
(dp2017
g5
(lp2018
S'18601211518'
p2019
asg9
S'5841301865760896'
p2020
sg11
V\u949f\u536b\u7ea2
p2021
sbsVqiyongxing
p2022
(i__main__
Person
p2023
(dp2024
g5
(lp2025
S'15001336102'
p2026
asg9
S'5841301706375168'
p2027
sg11
V\u7941\u6c38\u661f
p2028
sbsVkuaidishunfeng
p2029
(i__main__
Person
p2030
(dp2031
g5
(lp2032
S'18135772078'
p2033
asg9
S'10082465663158400'
p2034
sg11
V\u5feb\u9012\u987a\u4e30
p2035
sbsVhuangjing
p2036
(i__main__
Person
p2037
(dp2038
g5
(lp2039
S'15220827779'
p2040
aS'18857106479'
p2041
asg9
S'5841301550661633'
p2042
sg11
V\u9ec4\u9759
p2043
sbsVfankaiyang
p2044
(i__main__
Person
p2045
(dp2046
g5
(lp2047
S'13721400225'
p2048
asg9
S'5841301529165824'
p2049
sg11
V\u6a0a\u51ef\u9633
p2050
sbsVliuqian
p2051
(i__main__
Person
p2052
(dp2053
g5
(lp2054
S'13811226315'
p2055
asg9
S'5841301608073088'
p2056
sg11
V\u5218\u5029
p2057
sbsVliuqiang
p2058
(i__main__
Person
p2059
(dp2060
g5
(lp2061
S'18736000651'
p2062
asg9
S'5841301595490560'
p2063
sg11
V\u5218\u5f3a
p2064
sbsVzhangjingyu
p2065
(i__main__
Person
p2066
(dp2067
g5
(lp2068
S'15981905199'
p2069
asg9
S'5841301826701312'
p2070
sg11
V\u5f20\u9756\u5b87
p2071
sbsVyanghao
p2072
(i__main__
Person
p2073
(dp2074
g5
(lp2075
S'13598874949'
p2076
asg9
S'5841301797601280'
p2077
sg11
V\u6768\u6d69
p2078
sbsVzhaofuliang
p2079
(i__main__
Person
p2080
(dp2081
g5
(lp2082
S'13523091435'
p2083
asg9
S'5841301857894400'
p2084
sg11
V\u8d75\u4ed8\u4eae
p2085
sbsVliuwenlong
p2086
(i__main__
Person
p2087
(dp2088
g5
(lp2089
S'13581837684'
p2090
asg9
S'5841301611741184'
p2091
sg11
V\u5218\u6587\u9f99
p2092
sbsVqiangyigang
p2093
(i__main__
Person
p2094
(dp2095
g5
(lp2096
S'13363914591'
p2097
asg9
S'5841301705328512'
p2098
sg11
V\u5f3a\u6bc5\u521a
p2099
sbsVlixiaopeng
p2100
(i__main__
Person
p2101
(dp2102
g5
(lp2103
S'15603203500'
p2104
asg9
S'5841301654996992'
p2105
sg11
V\u674e\u5c0f\u9e4f
p2106
sbsVzhangzhongqing
p2107
(i__main__
Person
p2108
(dp2109
g5
(lp2110
S'18643061709'
p2111
aS'13789303079'
p2112
asg9
S'5841301853700096'
p2113
sg11
V\u5f20\u91cd\u5e86
p2114
sbsVchenhuan
p2115
(i__main__
Person
p2116
(dp2117
g5
(lp2118
S'13938587230'
p2119
asg9
S'5841301507932160'
p2120
sg11
V\u9648\u7115
p2121
sbsVlihuawei
p2122
(i__main__
Person
p2123
(dp2124
g5
(lp2125
S'18610380009'
p2126
asg9
S'5841301624850560'
p2127
sg11
V\u674e\u534e\u4f1f
p2128
sbsVdongqujifangzhiban
p2129
(i__main__
Person
p2130
(dp2131
g5
(lp2132
S'13598891206'
p2133
asg9
S'5841301524185088'
p2134
sg11
V\u4e1c\u533a\u673a\u623f\u503c\u73ed
p2135
sbsVxuxin
p2136
(i__main__
Person
p2137
(dp2138
g5
(lp2139
S'15210697291'
p2140
aS'18612228115'
p2141
asg9
S'5841301788952704'
p2142
sg11
V\u5f90\u4fe1
p2143
sbsVwangchao
p2144
(i__main__
Person
p2145
(dp2146
g5
(lp2147
S'18618289156'
p2148
asg9
S'5841301743599616'
p2149
sg11
V\u738b\u8d85
p2150
sbsVlidongyang
p2151
(i__main__
Person
p2152
(dp2153
g5
(lp2154
S'15803993736'
p2155
asg9
S'5841301621180416'
p2156
sg11
V\u674e\u51ac\u9633
p2157
sbsVzhangrong
p2158
(i__main__
Person
p2159
(dp2160
g5
(lp2161
S'15036289235'
p2162
aS'15196631009'
p2163
asg9
S'5841301830895616'
p2164
sg11
V\u5f20\u84c9
p2165
sbsVyourongsheng
p2166
(i__main__
Person
p2167
(dp2168
g5
(lp2169
S'15157193568'
p2170
aS'17091832474'
p2171
asg9
S'5841301814642944'
p2172
sg11
V\u6e38\u8363\u751f
p2173
sbsVxiaolin
p2174
(i__main__
Person
p2175
(dp2176
g5
(lp2177
S'18614021195'
p2178
asg9
S'5841301780826368'
p2179
sg11
V\u8096\u7433
p2180
sbsVzhangyaohua
p2181
(i__main__
Person
p2182
(dp2183
g5
(lp2184
S'13607668168'
p2185
asg9
S'5841301843216384'
p2186
sg11
V\u5f20\u8000\u534e
p2187
sbsVningyang
p2188
(i__main__
Person
p2189
(dp2190
g5
(lp2191
S'18317721898'
p2192
asg9
S'5841301696940160'
p2193
sg11
V\u5b81\u9633
p2194
sbsVniyuejie
p2195
(i__main__
Person
p2196
(dp2197
g5
(lp2198
S'15981998699'
p2199
asg9
S'5841301699037056'
p2200
sg11
V\u5c3c\u8dc3\u6770
p2201
sbsVguangwangkachangjia
p2202
(i__main__
Person
p2203
(dp2204
g5
(lp2205
S'15311995575'
p2206
asg9
S'6907435058988032'
p2207
sg11
V\u5149\u7f51\u5361\u5382\u5bb6
p2208
sbsVzhangzhenlei
p2209
(i__main__
Person
p2210
(dp2211
g5
(lp2212
S'18638708666'
p2213
asg9
S'5841301851605248'
p2214
sg11
V\u5f20\u632f\u78ca
p2215
sbsVxuzhimin
p2216
(i__main__
Person
p2217
(dp2218
g5
(lp2219
S'18639001931'
p2220
asg9
S'5841301792884736'
p2221
sg11
V\u5f90\u5fd7\u654f
p2222
sbsVsunguomao
p2223
(i__main__
Person
p2224
(dp2225
g5
(lp2226
S'15639070566'
p2227
asg9
S'5841301729708032'
p2228
sg11
V\u5b59\u56fd\u8302
p2229
sbsVshixiaojian
p2230
(i__main__
Person
p2231
(dp2232
g5
(lp2233
S'15093167815'
p2234
asg9
S'5841301723678848'
p2235
sg11
V\u77f3\u5c0f\u5efa
p2236
sbsVhaozong
p2237
(i__main__
Person
p2238
(dp2239
g5
(lp2240
S'18503896658'
p2241
asg9
S'7565203718276608'
p2242
sg11
V\u90dd\u603b
p2243
sbsVzhangsan
p2244
(i__main__
Person
p2245
(dp2246
S'tels'
p2247
(lp2248
S'+86 12322223333'
p2249
aS'+86 010 12223333'
p2250
asS'uid'
p2251
S'0000000000000000'
p2252
sS'fn'
p2253
V\u5f20\u4e09
p2254
sbsVzhanglihua
p2255
(i__main__
Person
p2256
(dp2257
g5
(lp2258
S'15321929550'
p2259
asg9
S'5841301829322624'
p2260
sg11
V\u5f20\u4e3d\u534e
p2261
sbsVhuanglin
p2262
(i__main__
Person
p2263
(dp2264
g5
(lp2265
S'18685156071'
p2266
asg9
S'10150520017913984'
p2267
sg11
V\u9ec4\u6797
p2268
sbsVcaiming
p2269
(i__main__
Person
p2270
(dp2271
g5
(lp2272
S'18637187302'
p2273
asg9
S'5841301496399872'
p2274
sg11
V\u8521\u660e
p2275
sbsVzhanghaining
p2276
(i__main__
Person
p2277
(dp2278
g5
(lp2279
S'13588258323'
p2280
asg9
S'5841301824080000'
p2281
sg11
V\u5f20\u6d77\u5b81
p2282
sbsVlijiajia
p2283
(i__main__
Person
p2284
(dp2285
g5
(lp2286
S'13209502106'
p2287
asg9
S'5841301625636736'
p2288
sg11
V\u674e\u4f73\u4f3d
p2289
sbsVxuyongzhongoptel
p2290
(i__main__
Person
p2291
(dp2292
g5
(lp2293
S'13508319712'
p2294
asg9
S'5841301791574272'
p2295
sg11
V\u5f90\u6c38\u5fe0optel
p2296
sbsVliuzhenlin
p2297
(i__main__
Person
p2298
(dp2299
g5
(lp2300
S'13505157163'
p2301
asg9
S'5841301619081216'
p2302
sg11
V\u5218\u632f\u6797
p2303
sbsVchengyanming
p2304
(i__main__
Person
p2305
(dp2306
g5
(lp2307
S'13938202672'
p2308
asg9
S'5841301503215616'
p2309
sg11
V\u7a0b\u8273\u660e
p2310
sbsVhuangyuzhong
p2311
(i__main__
Person
p2312
(dp2313
g5
(lp2314
S'15055159576'
p2315
asg9
S'5841301563508608'
p2316
sg11
V\u9ec4\u7389\u4e2d
p2317
sbsVlonghaojie
p2318
(i__main__
Person
p2319
(dp2320
g5
(lp2321
S'18295008993'
p2322
asg9
S'5841301663385729'
p2323
sg11
V\u9f99\u8c6a\u6770
p2324
sbsVwangchunbo
p2325
(i__main__
Person
p2326
(dp2327
g5
(lp2328
S'15895865788'
p2329
asg9
S'5841301745698816'
p2330
sg11
V\u738b\u6625\u6ce2
p2331
sbsVzhanglei
p2332
(i__main__
Person
p2333
(dp2334
g5
(lp2335
S'15038267897'
p2336
asg9
S'5841301828798464'
p2337
sg11
V\u5f20\u78ca
p2338
sbsVzhangzhongguo
p2339
(i__main__
Person
p2340
(dp2341
g5
(lp2342
S'15102158052'
p2343
asg9
S'5841301852651520'
p2344
sg11
V\u5f20\u5fe0\u56fd
p2345
sbsVtaozhizhong
p2346
(i__main__
Person
p2347
(dp2348
g5
(lp2349
S'13903713091'
p2350
asg9
S'5841301737572608'
p2351
sg11
V\u9676\u5fd7\u5fe0
p2352
sbsVsishu
p2353
(i__main__
Person
p2354
(dp2355
g5
(lp2356
S'15938477686'
p2357
asg9
S'5841301726560256'
p2358
sg11
V\u56db\u53d4
p2359
sbsVyangli
p2360
(i__main__
Person
p2361
(dp2362
g5
(lp2363
S'13525556289'
p2364
asg9
S'5841301801797632'
p2365
sg11
V\u6768\u4e3d
p2366
sbsVzhangzhi
p2367
(i__main__
Person
p2368
(dp2369
g5
(lp2370
S'13488752927'
p2371
asg9
S'5841301852391680'
p2372
sg11
V\u5f20\u6cbb
p2373
sbsVyanxinyu
p2374
(i__main__
Person
p2375
(dp2376
g5
(lp2377
S'18203977886'
p2378
asg9
S'5841301807826816'
p2379
sg11
V\u95eb\u85aa\u5b87
p2380
sbsVlikun
p2381
(i__main__
Person
p2382
(dp2383
g5
(lp2384
S'15956901600'
p2385
asg9
S'5841301627731968'
p2386
sg11
V\u674e\u5764
p2387
sbsVliuxiaoguang
p2388
(i__main__
Person
p2389
(dp2390
g5
(lp2391
S'18031276416'
p2392
asg9
S'5841301614886912'
p2393
sg11
V\u5218\u6653\u5149
p2394
sbsVguanyubin
p2395
(i__main__
Person
p2396
(dp2397
g5
(lp2398
S'15004080927'
p2399
asg9
S'5841301541748736'
p2400
sg11
V\u5173\u79b9\u658c
p2401
sbsVniukai
p2402
(i__main__
Person
p2403
(dp2404
g5
(lp2405
S'13641051808'
p2406
asg9
S'5841301697726464'
p2407
sg11
V\u725b\u51ef
p2408
sbsVliuyu
p2409
(i__main__
Person
p2410
(dp2411
g5
(lp2412
S'18686387737'
p2413
asg9
S'5841301618034944'
p2414
sg11
V\u5218\u5b87
p2415
sbsVpanqi
p2416
(i__main__
Person
p2417
(dp2418
g5
(lp2419
S'13601068910'
p2420
asg9
S'5841301703493888'
p2421
sg11
V\u6f58\u9f50
p2422
sbsVjiangzhan
p2423
(i__main__
Person
p2424
(dp2425
g5
(lp2426
S'18638923655'
p2427
asg9
S'5841301572421632'
p2428
sg11
V\u59dc\u5c55
p2429
sbs.